target datalayout = "e-m:e-p270:32:32-p271:32:32-p272:64:64-i64:64-i128:128-f80:128-n8:16:32:64-S128"
target triple = "x86_64-pc-linux-gnu"

%struct._object = type { %union.anon, ptr }
%union.anon = type { i64 }
%struct.PyVarObject = type { %struct._object, i64 }
%struct.PyStructObject = type { %struct._object, i64, i64, ptr, ptr, ptr }
%struct.anon = type { i32, i32 }
%struct._formatcode = type { ptr, i64, i64, i64 }
%struct._formatdef = type { i8, i64, i64, ptr, ptr }
%struct.PyTupleObject = type { %struct.PyVarObject, [1 x ptr] }

; Function Attrs: alwaysinline nounwind uwtable
define internal i32 @_Py_IsImmortal(ptr noundef %0) #4 {
  %2 = alloca ptr, align 8
  store ptr %0, ptr %2, align 8, !tbaa !3
  %3 = load ptr, ptr %2, align 8, !tbaa !3
  %4 = getelementptr inbounds nuw %struct._object, ptr %3, i32 0, i32 0
  %5 = getelementptr inbounds nuw %struct.anon, ptr %4, i32 0, i32 0
  %6 = load i32, ptr %5, align 8, !tbaa !32
  %7 = icmp slt i32 %6, 0
  %8 = zext i1 %7 to i32
  ret i32 %8
}

; Function Attrs: alwaysinline nounwind uwtable
define internal void @Py_DECREF(ptr noundef %0) #4 {
  %2 = alloca ptr, align 8
  store ptr %0, ptr %2, align 8, !tbaa !3
  %3 = load ptr, ptr %2, align 8, !tbaa !3
  %4 = call i32 @_Py_IsImmortal(ptr noundef %3)
  %5 = icmp ne i32 %4, 0
  br i1 %5, label %6, label %7

6:                                                ; preds = %1
  br label %16

7:                                                ; preds = %1
  %8 = load ptr, ptr %2, align 8, !tbaa !3
  %9 = getelementptr inbounds nuw %struct._object, ptr %8, i32 0, i32 0
  %10 = getelementptr inbounds nuw %struct.anon, ptr %9, i32 0, i32 0
  %11 = load i32, ptr %10, align 8, !tbaa !32
  %12 = add i32 %11, -1
  store i32 %12, ptr %10, align 8, !tbaa !32
  %13 = icmp eq i32 %12, 0
  br i1 %13, label %14, label %16

14:                                               ; preds = %7
  %15 = load ptr, ptr %2, align 8, !tbaa !3
  call void @_Py_Dealloc(ptr noundef %15)
  br label %16

16:                                               ; preds = %6, %14, %7
  ret void
}

; Function Attrs: inlinehint nounwind uwtable
define internal void @PyTuple_SET_ITEM(ptr noundef %0, i64 noundef %1, ptr noundef %2) #2 {
  %4 = alloca ptr, align 8
  %5 = alloca i64, align 8
  %6 = alloca ptr, align 8
  %7 = alloca ptr, align 8
  store ptr %0, ptr %4, align 8, !tbaa !3
  store i64 %1, ptr %5, align 8, !tbaa !18
  store ptr %2, ptr %6, align 8, !tbaa !3
  call void @llvm.lifetime.start.p0(i64 8, ptr %7) #8
  %8 = load ptr, ptr %4, align 8, !tbaa !3
  store ptr %8, ptr %7, align 8, !tbaa !8
  %9 = load ptr, ptr %6, align 8, !tbaa !3
  %10 = load ptr, ptr %7, align 8, !tbaa !8
  %11 = getelementptr inbounds nuw %struct.PyTupleObject, ptr %10, i32 0, i32 1
  %12 = load i64, ptr %5, align 8, !tbaa !18
  %13 = getelementptr [1 x ptr], ptr %11, i64 0, i64 %12
  store ptr %9, ptr %13, align 8, !tbaa !3
  call void @llvm.lifetime.end.p0(i64 8, ptr %7) #8
  ret void
}

; Function Attrs: nounwind uwtable
define internal ptr @s_unpack_internal(ptr noundef %0, ptr noundef %1, ptr noundef %2) #0 {
  %4 = alloca ptr, align 8
  %5 = alloca ptr, align 8
  %6 = alloca ptr, align 8
  %7 = alloca ptr, align 8
  %8 = alloca ptr, align 8
  %9 = alloca i64, align 8
  %10 = alloca ptr, align 8
  %11 = alloca i32, align 4
  %12 = alloca ptr, align 8
  %13 = alloca ptr, align 8
  %14 = alloca i64, align 8
  %15 = alloca ptr, align 8
  %16 = alloca i64, align 8
  store ptr %0, ptr %5, align 8, !tbaa !8
  store ptr %1, ptr %6, align 8, !tbaa !43
  store ptr %2, ptr %7, align 8, !tbaa !8
  call void @llvm.lifetime.start.p0(i64 8, ptr %8) #8
  call void @llvm.lifetime.start.p0(i64 8, ptr %9) #8
  store i64 0, ptr %9, align 8, !tbaa !18
  call void @llvm.lifetime.start.p0(i64 8, ptr %10) #8
  %17 = load ptr, ptr %5, align 8, !tbaa !8
  %18 = getelementptr inbounds nuw %struct.PyStructObject, ptr %17, i32 0, i32 2
  %19 = load i64, ptr %18, align 8, !tbaa !42
  %20 = call ptr @PyTuple_New(i64 noundef %19)
  store ptr %20, ptr %10, align 8, !tbaa !3
  %21 = load ptr, ptr %10, align 8, !tbaa !3
  %22 = icmp eq ptr %21, null
  br i1 %22, label %23, label %24

23:                                               ; preds = %3
  store ptr null, ptr %4, align 8
  store i32 1, ptr %11, align 4
  br label %130

24:                                               ; preds = %3
  %25 = load ptr, ptr %5, align 8, !tbaa !8
  %26 = getelementptr inbounds nuw %struct.PyStructObject, ptr %25, i32 0, i32 3
  %27 = load ptr, ptr %26, align 8, !tbaa !44
  store ptr %27, ptr %8, align 8, !tbaa !45
  br label %28

28:                                               ; preds = %123, %24
  %29 = load ptr, ptr %8, align 8, !tbaa !45
  %30 = getelementptr inbounds nuw %struct._formatcode, ptr %29, i32 0, i32 0
  %31 = load ptr, ptr %30, align 8, !tbaa !46
  %32 = icmp ne ptr %31, null
  br i1 %32, label %33, label %126

33:                                               ; preds = %28
  call void @llvm.lifetime.start.p0(i64 8, ptr %12) #8
  %34 = load ptr, ptr %8, align 8, !tbaa !45
  %35 = getelementptr inbounds nuw %struct._formatcode, ptr %34, i32 0, i32 0
  %36 = load ptr, ptr %35, align 8, !tbaa !46
  store ptr %36, ptr %12, align 8, !tbaa !49
  call void @llvm.lifetime.start.p0(i64 8, ptr %13) #8
  %37 = load ptr, ptr %6, align 8, !tbaa !43
  %38 = load ptr, ptr %8, align 8, !tbaa !45
  %39 = getelementptr inbounds nuw %struct._formatcode, ptr %38, i32 0, i32 1
  %40 = load i64, ptr %39, align 8, !tbaa !50
  %41 = getelementptr i8, ptr %37, i64 %40
  store ptr %41, ptr %13, align 8, !tbaa !43
  call void @llvm.lifetime.start.p0(i64 8, ptr %14) #8
  %42 = load ptr, ptr %8, align 8, !tbaa !45
  %43 = getelementptr inbounds nuw %struct._formatcode, ptr %42, i32 0, i32 3
  %44 = load i64, ptr %43, align 8, !tbaa !51
  store i64 %44, ptr %14, align 8, !tbaa !18
  br label %45

45:                                               ; preds = %118, %33
  %46 = load i64, ptr %14, align 8, !tbaa !18
  %47 = add i64 %46, -1
  store i64 %47, ptr %14, align 8, !tbaa !18
  %48 = icmp ne i64 %46, 0
  br i1 %48, label %49, label %119

49:                                               ; preds = %45
  call void @llvm.lifetime.start.p0(i64 8, ptr %15) #8
  %50 = load ptr, ptr %12, align 8, !tbaa !49
  %51 = getelementptr inbounds nuw %struct._formatdef, ptr %50, i32 0, i32 0
  %52 = load i8, ptr %51, align 8, !tbaa !52
  %53 = sext i8 %52 to i32
  %54 = icmp eq i32 %53, 115
  br i1 %54, label %55, label %61

55:                                               ; preds = %49
  %56 = load ptr, ptr %13, align 8, !tbaa !43
  %57 = load ptr, ptr %8, align 8, !tbaa !45
  %58 = getelementptr inbounds nuw %struct._formatcode, ptr %57, i32 0, i32 2
  %59 = load i64, ptr %58, align 8, !tbaa !54
  %60 = call ptr @PyBytes_FromStringAndSize(ptr noundef %56, i64 noundef %59)
  store ptr %60, ptr %15, align 8, !tbaa !3
  br label %102

61:                                               ; preds = %49
  %62 = load ptr, ptr %12, align 8, !tbaa !49
  %63 = getelementptr inbounds nuw %struct._formatdef, ptr %62, i32 0, i32 0
  %64 = load i8, ptr %63, align 8, !tbaa !52
  %65 = sext i8 %64 to i32
  %66 = icmp eq i32 %65, 112
  br i1 %66, label %67, label %93

67:                                               ; preds = %61
  call void @llvm.lifetime.start.p0(i64 8, ptr %16) #8
  %68 = load ptr, ptr %8, align 8, !tbaa !45
  %69 = getelementptr inbounds nuw %struct._formatcode, ptr %68, i32 0, i32 2
  %70 = load i64, ptr %69, align 8, !tbaa !54
  %71 = icmp eq i64 %70, 0
  br i1 %71, label %72, label %73

72:                                               ; preds = %67
  store i64 0, ptr %16, align 8, !tbaa !18
  br label %88

73:                                               ; preds = %67
  %74 = load ptr, ptr %13, align 8, !tbaa !43
  %75 = load i8, ptr %74, align 1, !tbaa !32
  %76 = zext i8 %75 to i64
  store i64 %76, ptr %16, align 8, !tbaa !18
  %77 = load i64, ptr %16, align 8, !tbaa !18
  %78 = load ptr, ptr %8, align 8, !tbaa !45
  %79 = getelementptr inbounds nuw %struct._formatcode, ptr %78, i32 0, i32 2
  %80 = load i64, ptr %79, align 8, !tbaa !54
  %81 = icmp sge i64 %77, %80
  br i1 %81, label %82, label %87

82:                                               ; preds = %73
  %83 = load ptr, ptr %8, align 8, !tbaa !45
  %84 = getelementptr inbounds nuw %struct._formatcode, ptr %83, i32 0, i32 2
  %85 = load i64, ptr %84, align 8, !tbaa !54
  %86 = sub i64 %85, 1
  store i64 %86, ptr %16, align 8, !tbaa !18
  br label %87

87:                                               ; preds = %82, %73
  br label %88

88:                                               ; preds = %87, %72
  %89 = load ptr, ptr %13, align 8, !tbaa !43
  %90 = getelementptr i8, ptr %89, i64 1
  %91 = load i64, ptr %16, align 8, !tbaa !18
  %92 = call ptr @PyBytes_FromStringAndSize(ptr noundef %90, i64 noundef %91)
  store ptr %92, ptr %15, align 8, !tbaa !3
  call void @llvm.lifetime.end.p0(i64 8, ptr %16) #8
  br label %101

93:                                               ; preds = %61
  %94 = load ptr, ptr %12, align 8, !tbaa !49
  %95 = getelementptr inbounds nuw %struct._formatdef, ptr %94, i32 0, i32 3
  %96 = load ptr, ptr %95, align 8, !tbaa !72
  %97 = load ptr, ptr %7, align 8, !tbaa !8
  %98 = load ptr, ptr %13, align 8, !tbaa !43
  %99 = load ptr, ptr %12, align 8, !tbaa !49
  %100 = call ptr %96(ptr noundef %97, ptr noundef %98, ptr noundef %99)
  store ptr %100, ptr %15, align 8, !tbaa !3
  br label %101

101:                                              ; preds = %93, %88
  br label %102

102:                                              ; preds = %101, %55
  %103 = load ptr, ptr %15, align 8, !tbaa !3
  %104 = icmp eq ptr %103, null
  br i1 %104, label %105, label %106

105:                                              ; preds = %102
  store i32 7, ptr %11, align 4
  br label %116

106:                                              ; preds = %102
  %107 = load ptr, ptr %10, align 8, !tbaa !3
  %108 = load i64, ptr %9, align 8, !tbaa !18
  %109 = add i64 %108, 1
  store i64 %109, ptr %9, align 8, !tbaa !18
  %110 = load ptr, ptr %15, align 8, !tbaa !3
  call void @PyTuple_SET_ITEM(ptr noundef %107, i64 noundef %108, ptr noundef %110)
  %111 = load ptr, ptr %8, align 8, !tbaa !45
  %112 = getelementptr inbounds nuw %struct._formatcode, ptr %111, i32 0, i32 2
  %113 = load i64, ptr %112, align 8, !tbaa !54
  %114 = load ptr, ptr %13, align 8, !tbaa !43
  %115 = getelementptr i8, ptr %114, i64 %113
  store ptr %115, ptr %13, align 8, !tbaa !43
  store i32 0, ptr %11, align 4
  br label %116

116:                                              ; preds = %105, %106
  call void @llvm.lifetime.end.p0(i64 8, ptr %15) #8
  %117 = load i32, ptr %11, align 4
  switch i32 %117, label %120 [
    i32 0, label %118
  ]

118:                                              ; preds = %116
  br label %45, !llvm.loop !73

119:                                              ; preds = %45
  store i32 0, ptr %11, align 4
  br label %120

120:                                              ; preds = %119, %116
  call void @llvm.lifetime.end.p0(i64 8, ptr %14) #8
  call void @llvm.lifetime.end.p0(i64 8, ptr %13) #8
  call void @llvm.lifetime.end.p0(i64 8, ptr %12) #8
  %121 = load i32, ptr %11, align 4
  switch i32 %121, label %130 [
    i32 0, label %122
    i32 7, label %128
  ]

122:                                              ; preds = %120
  br label %123

123:                                              ; preds = %122
  %124 = load ptr, ptr %8, align 8, !tbaa !45
  %125 = getelementptr %struct._formatcode, ptr %124, i32 1
  store ptr %125, ptr %8, align 8, !tbaa !45
  br label %28, !llvm.loop !74

126:                                              ; preds = %28
  %127 = load ptr, ptr %10, align 8, !tbaa !3
  store ptr %127, ptr %4, align 8
  store i32 1, ptr %11, align 4
  br label %130

128:                                              ; preds = %120
  %129 = load ptr, ptr %10, align 8, !tbaa !3
  call void @Py_DECREF(ptr noundef %129)
  store ptr null, ptr %4, align 8
  store i32 1, ptr %11, align 4
  br label %130

130:                                              ; preds = %128, %126, %120, %23
  call void @llvm.lifetime.end.p0(i64 8, ptr %10) #8
  call void @llvm.lifetime.end.p0(i64 8, ptr %9) #8
  call void @llvm.lifetime.end.p0(i64 8, ptr %8) #8
  %131 = load ptr, ptr %4, align 8
  ret ptr %131
}